; Function Attrs: nounwind sspstrong uwtable
define internal fastcc i64 @rb_reg_error_desc(i64 noundef %0, i32 noundef %1, ptr noundef nonnull %2) unnamed_addr #2 {
  %4 = inttoptr i64 %0 to ptr
  %5 = load i64, ptr %4, align 8, !tbaa !34, !noalias !103
  %6 = and i64 %5, 8192
  %.not.i.i = icmp eq i64 %6, 0
  %7 = getelementptr inbounds nuw i8, ptr %4, i64 24
  br i1 %.not.i.i, label %RSTRING_PTR.exit, label %8

8:                                                ; preds = %3
  %.sroa.2.0.copyload.i = load ptr, ptr %7, align 8
  br label %RSTRING_PTR.exit

RSTRING_PTR.exit:                                 ; preds = %3, %8
  %.sroa.2.0.i = phi ptr [ %.sroa.2.0.copyload.i, %8 ], [ %7, %3 ]
  %9 = getelementptr inbounds nuw i8, ptr %4, i64 16
  %10 = load i64, ptr %9, align 8, !tbaa !35
  %11 = tail call ptr @rb_enc_get(i64 noundef %0) #29
  %12 = tail call fastcc i64 @rb_enc_reg_error_desc(ptr noundef %.sroa.2.0.i, i64 noundef %10, ptr noundef %11, i32 noundef %1, ptr noundef %2)
  ret i64 %12
}